; Function Attrs: mustprogress uwtable
define hidden noundef zeroext i1 @_ZN7datalog14dl_decl_plugin11is_rel_sortEP4sort(ptr noundef nonnull readonly align 8 captures(none) dereferenceable(160) %0, ptr noundef readonly captures(none) %1) local_unnamed_addr #3 align 2 personality ptr @__gxx_personality_v0 {
  %3 = alloca %class.ptr_vector.40, align 8
  call void @llvm.lifetime.start.p0(i64 8, ptr nonnull %3) #22
  store ptr null, ptr %3, align 8, !tbaa !57
  %4 = invoke noundef zeroext i1 @_ZN7datalog14dl_decl_plugin11is_rel_sortEP4sortR10ptr_vectorIS1_E(ptr noundef nonnull align 8 dereferenceable(160) %0, ptr noundef %1, ptr noundef nonnull align 8 dereferenceable(8) %3)
          to label %5 unwind label %12

5:                                                ; preds = %2
  %6 = load ptr, ptr %3, align 8, !tbaa !57
  %.not.i.i = icmp eq ptr %6, null
  br i1 %.not.i.i, label %_ZN6vectorIP4sortLb0EjED2Ev.exit, label %7

7:                                                ; preds = %5
  %8 = getelementptr inbounds i8, ptr %6, i64 -8
  invoke void @_ZN6memory10deallocateEPv(ptr noundef nonnull %8)
          to label %_ZN6vectorIP4sortLb0EjED2Ev.exit unwind label %9

9:                                                ; preds = %7
  %10 = landingpad { ptr, i32 }
          catch ptr null
  %11 = extractvalue { ptr, i32 } %10, 0
  call void @__clang_call_terminate(ptr %11) #25
  unreachable

_ZN6vectorIP4sortLb0EjED2Ev.exit:                 ; preds = %5, %7
  call void @llvm.lifetime.end.p0(i64 8, ptr nonnull %3) #22
  ret i1 true

12:                                               ; preds = %2
  %13 = landingpad { ptr, i32 }
          cleanup
  call void @_ZN6vectorIP4sortLb0EjED2Ev(ptr noundef nonnull align 8 dereferenceable(8) %3) #22
  call void @llvm.lifetime.end.p0(i64 8, ptr nonnull %3) #22
  resume { ptr, i32 } %13
}